target datalayout = "e-m:e-p270:32:32-p271:32:32-p272:64:64-i64:64-i128:128-f80:128-n8:16:32:64-S128"
target triple = "x86_64-pc-linux-gnu"

%struct.DirStack = type { i32, ptr }

@.str.42 = private unnamed_addr constant [131 x i8] c"generated/home/dtcxzyw/WorkSpace/Projects/compilers/llvm-opt-benchmark/bench/gromacs/gromacs/src/gromacs/gmxpreprocess/topdirs.cpp\00", align 1
@.str.66 = private unnamed_addr constant [2 x i8] c"D\00", align 1

; Function Attrs: inlinehint mustprogress uwtable
define internal void @_ZL14gmx_sfree_implI8DirStackEvPKcS2_iPT_(ptr noundef %0, ptr noundef %1, i32 noundef %2, ptr noundef %3) #8 {
  %5 = alloca ptr, align 8
  %6 = alloca ptr, align 8
  %7 = alloca i32, align 4
  %8 = alloca ptr, align 8
  store ptr %0, ptr %5, align 8, !tbaa !8
  store ptr %1, ptr %6, align 8, !tbaa !8
  store i32 %2, ptr %7, align 4, !tbaa !13
  store ptr %3, ptr %8, align 8, !tbaa !275
  %9 = load ptr, ptr %5, align 8, !tbaa !8
  %10 = load ptr, ptr %6, align 8, !tbaa !8
  %11 = load i32, ptr %7, align 4, !tbaa !13
  %12 = load ptr, ptr %8, align 8, !tbaa !275
  call void @_Z9save_freePKcS0_iPv(ptr noundef %9, ptr noundef %10, i32 noundef %11, ptr noundef %12)
  ret void
}

; Function Attrs: mustprogress uwtable
define void @_Z7DS_DonePP8DirStack(ptr noundef %0) #0 {
  %2 = alloca ptr, align 8
  %3 = alloca ptr, align 8
  store ptr %0, ptr %2, align 8, !tbaa !273
  call void @llvm.lifetime.start.p0(i64 8, ptr %3) #12
  br label %4

4:                                                ; preds = %8, %1
  %5 = load ptr, ptr %2, align 8, !tbaa !273
  %6 = load ptr, ptr %5, align 8, !tbaa !275
  %7 = icmp ne ptr %6, null
  br i1 %7, label %8, label %17

8:                                                ; preds = %4
  %9 = load ptr, ptr %2, align 8, !tbaa !273
  %10 = load ptr, ptr %9, align 8, !tbaa !275
  store ptr %10, ptr %3, align 8, !tbaa !275
  %11 = load ptr, ptr %2, align 8, !tbaa !273
  %12 = load ptr, ptr %11, align 8, !tbaa !275
  %13 = getelementptr inbounds nuw %struct.DirStack, ptr %12, i32 0, i32 1
  %14 = load ptr, ptr %13, align 8, !tbaa !281
  %15 = load ptr, ptr %2, align 8, !tbaa !273
  store ptr %14, ptr %15, align 8, !tbaa !275
  %16 = load ptr, ptr %3, align 8, !tbaa !275
  call void @_ZL14gmx_sfree_implI8DirStackEvPKcS2_iPT_(ptr noundef @.str.66, ptr noundef @.str.42, i32 noundef 384, ptr noundef %16)
  br label %4, !llvm.loop !283

17:                                               ; preds = %4
  call void @llvm.lifetime.end.p0(i64 8, ptr %3) #12
  ret void
}