; Function Attrs: mustprogress uwtable
define void @_Z7DS_DonePP8DirStack(ptr noundef captures(none) %0) local_unnamed_addr #1 {
  %2 = load ptr, ptr %0, align 8, !tbaa !66
  %.not5 = icmp eq ptr %2, null
  br i1 %.not5, label %._crit_edge, label %.lr.ph

.lr.ph:                                           ; preds = %1, %.lr.ph
  %3 = phi ptr [ %6, %.lr.ph ], [ %2, %1 ]
  %4 = getelementptr inbounds nuw i8, ptr %3, i64 8
  %5 = load ptr, ptr %4, align 8, !tbaa !71
  store ptr %5, ptr %0, align 8, !tbaa !66
  tail call void @_Z9save_freePKcS0_iPv(ptr noundef nonnull @.str.66, ptr noundef nonnull @.str.42, i32 noundef 384, ptr noundef nonnull %3)
  %6 = load ptr, ptr %0, align 8, !tbaa !66
  %.not = icmp eq ptr %6, null
  br i1 %.not, label %._crit_edge, label %.lr.ph, !llvm.loop !73

._crit_edge:                                      ; preds = %.lr.ph, %1
  ret void
}